; Function Attrs: mustprogress ssp uwtable
define void @_ZN6open3d13visualization21VisualizerWithEditing19MouseScrollCallbackEP10GLFWwindowdd(ptr noundef nonnull align 8 dereferenceable(628) %0, ptr noundef %1, double noundef %2, double noundef %3) unnamed_addr #1 align 2 {
  %5 = getelementptr inbounds nuw i8, ptr %0, i64 192
  %6 = load ptr, ptr %5, align 8, !tbaa !127
  %7 = getelementptr inbounds nuw i8, ptr %6, i64 880
  %8 = load i8, ptr %7, align 16, !tbaa !211, !range !82, !noundef !83
  %9 = trunc nuw i8 %8 to i1
  br i1 %9, label %11, label %10

10:                                               ; preds = %4
  tail call void @_ZN6open3d13visualization10Visualizer19MouseScrollCallbackEP10GLFWwindowdd(ptr noundef nonnull align 8 dereferenceable(456) %0, ptr noundef %1, double noundef %2, double noundef %3)
  br label %11

11:                                               ; preds = %4, %10
  ret void
}